; Function Attrs: mustprogress uwtable
define void @_ZN6icu_756number21SimpleNumberFormatter9forLocaleERKNS_6LocaleER10UErrorCode(ptr noalias sret(%"class.icu_75::number::SimpleNumberFormatter") align 8 %agg.result, ptr noundef nonnull align 8 dereferenceable(217) %locale, ptr noundef nonnull align 4 dereferenceable(4) %status) local_unnamed_addr #1 align 2 personality ptr @__gxx_personality_v0 {
entry:
  tail call void @llvm.experimental.noalias.scope.decl(metadata !4)
  store i32 2, ptr %agg.result, align 8, !alias.scope !4
  %fOwnedSymbols.i.i = getelementptr inbounds i8, ptr %agg.result, i64 8
  tail call void @llvm.memset.p0.i64(ptr noundef nonnull align 8 dereferenceable(24) %fOwnedSymbols.i.i, i8 0, i64 24, i1 false), !alias.scope !4
  %call.i = tail call noundef ptr @_ZN6icu_757UMemorynwEm(i64 noundef 2888) #11, !noalias !4
  %new.isnull.i = icmp eq ptr %call.i, null
  br i1 %new.isnull.i, label %new.cont.thread.i, label %new.notnull.i

new.notnull.i:                                    ; preds = %entry
  invoke void @_ZN6icu_7520DecimalFormatSymbolsC1ERKNS_6LocaleER10UErrorCode(ptr noundef nonnull align 8 dereferenceable(2883) %call.i, ptr noundef nonnull align 8 dereferenceable(217) %locale, ptr noundef nonnull align 4 dereferenceable(4) %status)
          to label %new.cont.i unwind label %lpad.i, !noalias !4

new.cont.i:                                       ; preds = %new.notnull.i
  store ptr %call.i, ptr %fOwnedSymbols.i.i, align 8, !alias.scope !4
  %0 = load i32, ptr %status, align 4, !noalias !4
  %cmp.i.i = icmp slt i32 %0, 1
  br i1 %cmp.i.i, label %if.end6.i, label %_ZN6icu_756number21SimpleNumberFormatter28forLocaleAndGroupingStrategyERKNS_6LocaleE23UNumberGroupingStrategyR10UErrorCode.exit

new.cont.thread.i:                                ; preds = %entry
  store ptr null, ptr %fOwnedSymbols.i.i, align 8, !alias.scope !4
  %1 = load i32, ptr %status, align 4, !noalias !4
  %cmp.i6.i = icmp slt i32 %1, 1
  br i1 %cmp.i6.i, label %if.then5.i, label %_ZN6icu_756number21SimpleNumberFormatter28forLocaleAndGroupingStrategyERKNS_6LocaleE23UNumberGroupingStrategyR10UErrorCode.exit

lpad.i:                                           ; preds = %new.notnull.i
  %2 = landingpad { ptr, i32 }
          cleanup
  tail call void @_ZN6icu_757UMemorydlEPv(ptr noundef nonnull %call.i) #11, !noalias !4
  br label %ehcleanup.i

lpad1.i:                                          ; preds = %if.end6.i
  %3 = landingpad { ptr, i32 }
          cleanup
  br label %ehcleanup.i

if.then5.i:                                       ; preds = %new.cont.thread.i
  store i32 7, ptr %status, align 4, !noalias !4
  br label %_ZN6icu_756number21SimpleNumberFormatter28forLocaleAndGroupingStrategyERKNS_6LocaleE23UNumberGroupingStrategyR10UErrorCode.exit

if.end6.i:                                        ; preds = %new.cont.i
  invoke void @_ZN6icu_756number21SimpleNumberFormatter10initializeERKNS_6LocaleERKNS_20DecimalFormatSymbolsE23UNumberGroupingStrategyR10UErrorCode(ptr noundef nonnull align 8 dereferenceable(32) %agg.result, ptr noundef nonnull align 8 dereferenceable(217) %locale, ptr noundef nonnull align 8 dereferenceable(2883) %call.i, i32 noundef 2, ptr noundef nonnull align 4 dereferenceable(4) %status)
          to label %_ZN6icu_756number21SimpleNumberFormatter28forLocaleAndGroupingStrategyERKNS_6LocaleE23UNumberGroupingStrategyR10UErrorCode.exit unwind label %lpad1.i

ehcleanup.i:                                      ; preds = %lpad1.i, %lpad.i
  %.pn.i = phi { ptr, i32 } [ %3, %lpad1.i ], [ %2, %lpad.i ]
  tail call void @_ZN6icu_756number21SimpleNumberFormatterD2Ev(ptr noundef nonnull align 8 dereferenceable(32) %agg.result) #11
  resume { ptr, i32 } %.pn.i

_ZN6icu_756number21SimpleNumberFormatter28forLocaleAndGroupingStrategyERKNS_6LocaleE23UNumberGroupingStrategyR10UErrorCode.exit: ; preds = %new.cont.i, %new.cont.thread.i, %if.then5.i, %if.end6.i
  ret void
}